; Function Attrs: mustprogress uwtable
define hidden noundef zeroext i1 @_ZN2cv11WBaseStream10writeBlockEv(ptr noundef nonnull align 8 captures(none) dereferenceable(64) %0) unnamed_addr #1 align 2 personality ptr @__gxx_personality_v0 {
  %2 = alloca %"class.std::__cxx11::basic_string", align 8
  %3 = alloca %"class.std::allocator", align 1
  %4 = getelementptr inbounds nuw i8, ptr %0, i64 24
  %5 = load ptr, ptr %4, align 8, !tbaa !55
  %6 = getelementptr inbounds nuw i8, ptr %0, i64 8
  %7 = load ptr, ptr %6, align 8, !tbaa !53
  %8 = ptrtoint ptr %5 to i64
  %9 = ptrtoint ptr %7 to i64
  %10 = sub i64 %8, %9
  %11 = trunc i64 %10 to i32
  %12 = getelementptr inbounds nuw i8, ptr %0, i64 48
  %13 = load i8, ptr %12, align 8, !tbaa !51, !range !12, !noundef !13
  %14 = trunc nuw i8 %13 to i1
  br i1 %14, label %25, label %15

15:                                               ; preds = %1
  call void @llvm.lifetime.start.p0(i64 32, ptr nonnull %2) #22
  call void @llvm.lifetime.start.p0(i64 1, ptr nonnull %3) #22
  call void @_ZNSt7__cxx1112basic_stringIcSt11char_traitsIcESaIcEEC2EPKcRKS3_(ptr noundef nonnull align 8 dereferenceable(32) %2, ptr noundef nonnull @.str.5, ptr noundef nonnull align 1 dereferenceable(1) %3)
  invoke void @_ZN2cv5errorEiRKNSt7__cxx1112basic_stringIcSt11char_traitsIcESaIcEEEPKcS9_i(i32 noundef -215, ptr noundef nonnull align 8 dereferenceable(32) %2, ptr noundef nonnull @__func__._ZN2cv11WBaseStream10writeBlockEv, ptr noundef nonnull @.str.1, i32 noundef 341) #24
          to label %16 unwind label %17

16:                                               ; preds = %15
  unreachable

17:                                               ; preds = %15
  %18 = landingpad { ptr, i32 }
          cleanup
  %19 = load ptr, ptr %2, align 8, !tbaa !23
  %20 = getelementptr inbounds nuw i8, ptr %2, i64 16
  %21 = icmp eq ptr %19, %20
  br i1 %21, label %_ZNKSt7__cxx1112basic_stringIcSt11char_traitsIcESaIcEE11_M_is_localEv.exit.thread.i.i, label %_ZNKSt7__cxx1112basic_stringIcSt11char_traitsIcESaIcEE11_M_is_localEv.exit.i.i

_ZNKSt7__cxx1112basic_stringIcSt11char_traitsIcESaIcEE11_M_is_localEv.exit.thread.i.i: ; preds = %17
  %22 = getelementptr inbounds nuw i8, ptr %2, i64 8
  %23 = load i64, ptr %22, align 8, !tbaa !27
  %24 = icmp ult i64 %23, 16
  call void @llvm.assume(i1 %24)
  br label %_ZNSt7__cxx1112basic_stringIcSt11char_traitsIcESaIcEED2Ev.exit

_ZNKSt7__cxx1112basic_stringIcSt11char_traitsIcESaIcEE11_M_is_localEv.exit.i.i: ; preds = %17
  call void @_ZdlPv(ptr noundef %19) #23
  br label %_ZNSt7__cxx1112basic_stringIcSt11char_traitsIcESaIcEED2Ev.exit

_ZNSt7__cxx1112basic_stringIcSt11char_traitsIcESaIcEED2Ev.exit: ; preds = %_ZNKSt7__cxx1112basic_stringIcSt11char_traitsIcESaIcEE11_M_is_localEv.exit.i.i, %_ZNKSt7__cxx1112basic_stringIcSt11char_traitsIcESaIcEE11_M_is_localEv.exit.thread.i.i
  call void @llvm.lifetime.end.p0(i64 1, ptr nonnull %3) #22
  call void @llvm.lifetime.end.p0(i64 32, ptr nonnull %2) #22
  resume { ptr, i32 } %18

25:                                               ; preds = %1
  %26 = icmp eq i32 %11, 0
  br i1 %26, label %57, label %27

27:                                               ; preds = %25
  %28 = getelementptr inbounds nuw i8, ptr %0, i64 56
  %29 = load ptr, ptr %28, align 8, !tbaa !52
  %.not = icmp eq ptr %29, null
  br i1 %.not, label %47, label %30

30:                                               ; preds = %27
  %31 = getelementptr inbounds nuw i8, ptr %29, i64 8
  %32 = load ptr, ptr %31, align 8, !tbaa !56
  %33 = load ptr, ptr %29, align 8, !tbaa !58
  %34 = ptrtoint ptr %32 to i64
  %35 = ptrtoint ptr %33 to i64
  %36 = sub i64 %34, %35
  %sext18 = shl i64 %10, 32
  %37 = ashr exact i64 %sext18, 32
  %38 = add i64 %36, %37
  tail call void @_ZNSt6vectorIhSaIhEE6resizeEm(ptr noundef nonnull align 8 dereferenceable(24) %29, i64 noundef %38)
  %39 = load ptr, ptr %28, align 8, !tbaa !52
  %40 = load ptr, ptr %39, align 8, !tbaa !58
  %41 = getelementptr inbounds nuw i8, ptr %40, i64 %36
  %42 = load ptr, ptr %6, align 8, !tbaa !53
  tail call void @llvm.memcpy.p0.p0.i64(ptr nonnull align 1 %41, ptr align 1 %42, i64 %37, i1 false)
  %43 = load ptr, ptr %6, align 8, !tbaa !53
  store ptr %43, ptr %4, align 8, !tbaa !55
  %44 = getelementptr inbounds nuw i8, ptr %0, i64 36
  %45 = load i32, ptr %44, align 4, !tbaa !49
  %46 = add nsw i32 %45, %11
  store i32 %46, ptr %44, align 4, !tbaa !49
  br label %57

47:                                               ; preds = %27
  %sext = shl i64 %10, 32
  %48 = ashr exact i64 %sext, 32
  %49 = getelementptr inbounds nuw i8, ptr %0, i64 40
  %50 = load ptr, ptr %49, align 8, !tbaa !46
  %51 = tail call i64 @fwrite(ptr noundef %7, i64 noundef 1, i64 noundef %48, ptr noundef %50)
  %52 = load ptr, ptr %6, align 8, !tbaa !53
  store ptr %52, ptr %4, align 8, !tbaa !55
  %53 = getelementptr inbounds nuw i8, ptr %0, i64 36
  %54 = load i32, ptr %53, align 4, !tbaa !49
  %55 = add nsw i32 %54, %11
  store i32 %55, ptr %53, align 4, !tbaa !49
  %56 = icmp eq i64 %51, %48
  br label %57

57:                                               ; preds = %25, %47, %30
  %.0 = phi i1 [ true, %30 ], [ %56, %47 ], [ true, %25 ]
  ret i1 %.0
}